target datalayout = "e-m:e-p270:32:32-p271:32:32-p272:64:64-i64:64-i128:128-f80:128-n8:16:32:64-S128"
target triple = "x86_64-pc-linux-gnu"

%"class.gmx::MessageStringCollector" = type { %"class.std::unique_ptr" }
%"class.std::unique_ptr" = type { %"struct.std::__uniq_ptr_data" }
%"struct.std::__uniq_ptr_data" = type { %"class.std::__uniq_ptr_impl" }
%"class.std::__uniq_ptr_impl" = type { %"class.std::tuple" }
%"class.std::tuple" = type { %"struct.std::_Tuple_impl" }
%"struct.std::_Tuple_impl" = type { %"struct.std::_Head_base.1" }
%"struct.std::_Head_base.1" = type { ptr }
%"class.std::__cxx11::basic_string" = type { %"struct.std::__cxx11::basic_string<char>::_Alloc_hider", i64, %union.anon }
%"struct.std::__cxx11::basic_string<char>::_Alloc_hider" = type { ptr }
%union.anon = type { i64, [8 x i8] }

@.str = private unnamed_addr constant [26 x i8] c"PME GPU does not support:\00", align 1
@.str.1 = private unnamed_addr constant [35 x i8] c"Double-precision build of GROMACS.\00", align 1
@.str.2 = private unnamed_addr constant [26 x i8] c"Non-GPU build of GROMACS.\00", align 1
@.str.3 = private unnamed_addr constant [26 x i8] c"HIP API not supported yet\00", align 1

; Function Attrs: mustprogress uwtable
define noundef zeroext i1 @_Z22pme_gpu_supports_buildPNSt7__cxx1112basic_stringIcSt11char_traitsIcESaIcEEE(ptr noundef %0) #0 personality ptr @__gxx_personality_v0 {
  %2 = alloca ptr, align 8
  %3 = alloca %"class.gmx::MessageStringCollector", align 8
  %4 = alloca ptr, align 8
  %5 = alloca i32, align 4
  %6 = alloca %"class.std::__cxx11::basic_string", align 8
  store ptr %0, ptr %2, align 8
  call void @_ZN3gmx22MessageStringCollectorC1Ev(ptr noundef nonnull align 8 dereferenceable(8) %3)
  invoke void @_ZN3gmx22MessageStringCollector12startContextEPKc(ptr noundef nonnull align 8 dereferenceable(8) %3, ptr noundef @.str)
          to label %7 unwind label %18

7:                                                ; preds = %1
  invoke void @_ZN3gmx22MessageStringCollector8appendIfEbPKc(ptr noundef nonnull align 8 dereferenceable(8) %3, i1 noundef zeroext false, ptr noundef @.str.1)
          to label %8 unwind label %18

8:                                                ; preds = %7
  invoke void @_ZN3gmx22MessageStringCollector8appendIfEbPKc(ptr noundef nonnull align 8 dereferenceable(8) %3, i1 noundef zeroext true, ptr noundef @.str.2)
          to label %9 unwind label %18

9:                                                ; preds = %8
  invoke void @_ZN3gmx22MessageStringCollector8appendIfEbPKc(ptr noundef nonnull align 8 dereferenceable(8) %3, i1 noundef zeroext false, ptr noundef @.str.3)
          to label %10 unwind label %18

10:                                               ; preds = %9
  invoke void @_ZN3gmx22MessageStringCollector13finishContextEv(ptr noundef nonnull align 8 dereferenceable(8) %3)
          to label %11 unwind label %18

11:                                               ; preds = %10
  %12 = load ptr, ptr %2, align 8
  %13 = icmp ne ptr %12, null
  br i1 %13, label %14, label %22

14:                                               ; preds = %11
  invoke void @_ZNK3gmx22MessageStringCollector8toStringB5cxx11Ev(ptr dead_on_unwind writable sret(%"class.std::__cxx11::basic_string") align 8 %6, ptr noundef nonnull align 8 dereferenceable(8) %3)
          to label %15 unwind label %18

15:                                               ; preds = %14
  %16 = load ptr, ptr %2, align 8
  %17 = call noundef nonnull align 8 dereferenceable(32) ptr @_ZNSt7__cxx1112basic_stringIcSt11char_traitsIcESaIcEEaSEOS4_(ptr noundef nonnull align 8 dereferenceable(32) %16, ptr noundef nonnull align 8 dereferenceable(32) %6) #5
  call void @_ZNSt7__cxx1112basic_stringIcSt11char_traitsIcESaIcEED1Ev(ptr noundef nonnull align 8 dereferenceable(32) %6) #5
  br label %22

18:                                               ; preds = %22, %14, %10, %9, %8, %7, %1
  %19 = landingpad { ptr, i32 }
          cleanup
  %20 = extractvalue { ptr, i32 } %19, 0
  store ptr %20, ptr %4, align 8
  %21 = extractvalue { ptr, i32 } %19, 1
  store i32 %21, ptr %5, align 4
  call void @_ZN3gmx22MessageStringCollectorD1Ev(ptr noundef nonnull align 8 dereferenceable(8) %3) #5
  br label %25

22:                                               ; preds = %15, %11
  %23 = invoke noundef zeroext i1 @_ZNK3gmx22MessageStringCollector7isEmptyEv(ptr noundef nonnull align 8 dereferenceable(8) %3)
          to label %24 unwind label %18

24:                                               ; preds = %22
  call void @_ZN3gmx22MessageStringCollectorD1Ev(ptr noundef nonnull align 8 dereferenceable(8) %3) #5
  ret i1 %23

25:                                               ; preds = %18
  %26 = load ptr, ptr %4, align 8
  %27 = load i32, ptr %5, align 4
  %28 = insertvalue { ptr, i32 } poison, ptr %26, 0
  %29 = insertvalue { ptr, i32 } %28, i32 %27, 1
  resume { ptr, i32 } %29
}