; Function Attrs: mustprogress uwtable
define noundef zeroext i1 @_Z22pme_gpu_supports_buildPNSt7__cxx1112basic_stringIcSt11char_traitsIcESaIcEEE(ptr noundef %0) local_unnamed_addr #0 personality ptr @__gxx_personality_v0 {
  %2 = alloca %"class.gmx::MessageStringCollector", align 8
  %3 = alloca %"class.std::__cxx11::basic_string", align 8
  call void @_ZN3gmx22MessageStringCollectorC1Ev(ptr noundef nonnull align 8 dereferenceable(8) %2)
  invoke void @_ZN3gmx22MessageStringCollector12startContextEPKc(ptr noundef nonnull align 8 dereferenceable(8) %2, ptr noundef nonnull @.str)
          to label %4 unwind label %12

4:                                                ; preds = %1
  invoke void @_ZN3gmx22MessageStringCollector8appendIfEbPKc(ptr noundef nonnull align 8 dereferenceable(8) %2, i1 noundef zeroext false, ptr noundef nonnull @.str.1)
          to label %5 unwind label %12

5:                                                ; preds = %4
  invoke void @_ZN3gmx22MessageStringCollector8appendIfEbPKc(ptr noundef nonnull align 8 dereferenceable(8) %2, i1 noundef zeroext true, ptr noundef nonnull @.str.2)
          to label %6 unwind label %12

6:                                                ; preds = %5
  invoke void @_ZN3gmx22MessageStringCollector8appendIfEbPKc(ptr noundef nonnull align 8 dereferenceable(8) %2, i1 noundef zeroext false, ptr noundef nonnull @.str.3)
          to label %7 unwind label %12

7:                                                ; preds = %6
  invoke void @_ZN3gmx22MessageStringCollector13finishContextEv(ptr noundef nonnull align 8 dereferenceable(8) %2)
          to label %8 unwind label %12

8:                                                ; preds = %7
  %.not = icmp eq ptr %0, null
  br i1 %.not, label %14, label %9

9:                                                ; preds = %8
  invoke void @_ZNK3gmx22MessageStringCollector8toStringB5cxx11Ev(ptr dead_on_unwind nonnull writable sret(%"class.std::__cxx11::basic_string") align 8 %3, ptr noundef nonnull align 8 dereferenceable(8) %2)
          to label %10 unwind label %12

10:                                               ; preds = %9
  %11 = call noundef nonnull align 8 dereferenceable(32) ptr @_ZNSt7__cxx1112basic_stringIcSt11char_traitsIcESaIcEEaSEOS4_(ptr noundef nonnull align 8 dereferenceable(32) %0, ptr noundef nonnull align 8 dereferenceable(32) %3) #7
  call void @_ZNSt7__cxx1112basic_stringIcSt11char_traitsIcESaIcEED1Ev(ptr noundef nonnull align 8 dereferenceable(32) %3) #7
  br label %14

12:                                               ; preds = %14, %9, %7, %6, %5, %4, %1
  %13 = landingpad { ptr, i32 }
          cleanup
  call void @_ZN3gmx22MessageStringCollectorD1Ev(ptr noundef nonnull align 8 dereferenceable(8) %2) #7
  resume { ptr, i32 } %13

14:                                               ; preds = %10, %8
  %15 = invoke noundef zeroext i1 @_ZNK3gmx22MessageStringCollector7isEmptyEv(ptr noundef nonnull align 8 dereferenceable(8) %2)
          to label %16 unwind label %12

16:                                               ; preds = %14
  call void @_ZN3gmx22MessageStringCollectorD1Ev(ptr noundef nonnull align 8 dereferenceable(8) %2) #7
  ret i1 %15
}